; ModuleID = 'source-C-CXX/51/4644.cpp'
source_filename = "source-C-CXX/51/4644.cpp"
target datalayout = "e-m:e-p270:32:32-p271:32:32-p272:64:64-i64:64-f80:128-n8:16:32:64-S128"
target triple = "x86_64-pc-linux-gnu"

%"class.std::ios_base::Init" = type { i8 }
%"class.std::basic_istream" = type { i32 (...)**, i64, %"class.std::basic_ios" }
%"class.std::basic_ios" = type { %"class.std::ios_base", %"class.std::basic_ostream"*, i8, i8, %"class.std::basic_streambuf"*, %"class.std::ctype"*, %"class.std::num_put"*, %"class.std::num_get"* }
%"class.std::ios_base" = type { i32 (...)**, i64, i64, i32, i32, i32, %"struct.std::ios_base::_Callback_list"*, %"struct.std::ios_base::_Words", [8 x %"struct.std::ios_base::_Words"], i32, %"struct.std::ios_base::_Words"*, %"class.std::locale" }
%"struct.std::ios_base::_Callback_list" = type { %"struct.std::ios_base::_Callback_list"*, void (i32, %"class.std::ios_base"*, i32)*, i32, i32 }
%"struct.std::ios_base::_Words" = type { i8*, i64 }
%"class.std::locale" = type { %"class.std::locale::_Impl"* }
%"class.std::locale::_Impl" = type { i32, %"class.std::locale::facet"**, i64, %"class.std::locale::facet"**, i8** }
%"class.std::locale::facet" = type <{ i32 (...)**, i32, [4 x i8] }>
%"class.std::basic_ostream" = type { i32 (...)**, %"class.std::basic_ios" }
%"class.std::basic_streambuf" = type { i32 (...)**, i8*, i8*, i8*, i8*, i8*, i8*, %"class.std::locale" }
%"class.std::ctype" = type <{ %"class.std::locale::facet.base", [4 x i8], %struct.__locale_struct*, i8, [7 x i8], i32*, i32*, i16*, i8, [256 x i8], [256 x i8], i8, [6 x i8] }>
%"class.std::locale::facet.base" = type <{ i32 (...)**, i32 }>
%struct.__locale_struct = type { [13 x %struct.__locale_data*], i16*, i32*, i32*, [13 x i8*] }
%struct.__locale_data = type opaque
%"class.std::num_put" = type { %"class.std::locale::facet.base", [4 x i8] }
%"class.std::num_get" = type { %"class.std::locale::facet.base", [4 x i8] }

@_ZStL8__ioinit = internal global %"class.std::ios_base::Init" zeroinitializer, align 1
@__dso_handle = external hidden global i8
@_ZSt3cin = external global %"class.std::basic_istream", align 8
@_ZSt4cout = external global %"class.std::basic_ostream", align 8
@.str = private unnamed_addr constant [2 x i8] c" \00", align 1
@llvm.global_ctors = appending global [1 x { i32, void ()*, i8* }] [{ i32, void ()*, i8* } { i32 65535, void ()* @_GLOBAL__sub_I_4644.cpp, i8* null }]

declare void @_ZNSt8ios_base4InitC1Ev(%"class.std::ios_base::Init"* nonnull align 1 dereferenceable(1)) unnamed_addr #0

; Function Attrs: nounwind
declare void @_ZNSt8ios_base4InitD1Ev(%"class.std::ios_base::Init"* nonnull align 1 dereferenceable(1)) unnamed_addr #1

; Function Attrs: nofree nounwind
declare i32 @__cxa_atexit(void (i8*)*, i8*, i8*) local_unnamed_addr #2

; Function Attrs: mustprogress norecurse sspstrong uwtable
define dso_local i32 @main() local_unnamed_addr #3 {
  %1 = alloca [100 x i32], align 16
  %2 = alloca i32, align 4
  %3 = alloca i32, align 4
  %4 = bitcast [100 x i32]* %1 to i8*
  call void @llvm.lifetime.start.p0i8(i64 400, i8* nonnull %4) #6
  %5 = bitcast i32* %2 to i8*
  call void @llvm.lifetime.start.p0i8(i64 4, i8* nonnull %5) #6
  %6 = bitcast i32* %3 to i8*
  call void @llvm.lifetime.start.p0i8(i64 4, i8* nonnull %6) #6
  %7 = call nonnull align 8 dereferenceable(16) %"class.std::basic_istream"* @_ZNSirsERi(%"class.std::basic_istream"* nonnull align 8 dereferenceable(16) @_ZSt3cin, i32* nonnull align 4 dereferenceable(4) %2)
  %8 = call nonnull align 8 dereferenceable(16) %"class.std::basic_istream"* @_ZNSirsERi(%"class.std::basic_istream"* nonnull align 8 dereferenceable(16) %7, i32* nonnull align 4 dereferenceable(4) %3)
  %9 = load i32, i32* %2, align 4, !tbaa !5
  %10 = icmp sgt i32 %9, 0
  br i1 %10, label %29, label %11

11:                                               ; preds = %29, %0
  %12 = phi i32 [ %9, %0 ], [ %34, %29 ]
  %13 = add nsw i32 %12, -1
  %14 = sext i32 %13 to i64
  %15 = getelementptr inbounds [100 x i32], [100 x i32]* %1, i64 0, i64 %14
  %16 = getelementptr inbounds [100 x i32], [100 x i32]* %1, i64 0, i64 0
  %17 = load i32, i32* %3, align 4, !tbaa !5
  %18 = icmp slt i32 %17, 1
  br i1 %18, label %37, label %19

19:                                               ; preds = %11
  %20 = icmp eq i32 %13, 0
  br i1 %20, label %86, label %21

21:                                               ; preds = %19
  %22 = shl nsw i64 %14, 2
  %23 = add nsw i64 %22, -4
  %24 = lshr exact i64 %23, 2
  %25 = add nuw nsw i64 %24, 1
  %26 = and i64 %25, 7
  %27 = icmp eq i64 %26, 0
  %28 = icmp ult i64 %23, 28
  br label %39

29:                                               ; preds = %0, %29
  %30 = phi i64 [ %33, %29 ], [ 0, %0 ]
  %31 = getelementptr inbounds [100 x i32], [100 x i32]* %1, i64 0, i64 %30
  %32 = call nonnull align 8 dereferenceable(16) %"class.std::basic_istream"* @_ZNSirsERi(%"class.std::basic_istream"* nonnull align 8 dereferenceable(16) @_ZSt3cin, i32* nonnull align 4 dereferenceable(4) %31)
  %33 = add nuw nsw i64 %30, 1
  %34 = load i32, i32* %2, align 4, !tbaa !5
  %35 = sext i32 %34 to i64
  %36 = icmp slt i64 %33, %35
  br i1 %36, label %29, label %11, !llvm.loop !9

37:                                               ; preds = %70, %11
  %38 = icmp sgt i32 %12, 1
  br i1 %38, label %73, label %86

39:                                               ; preds = %21, %70
  %40 = phi i32 [ %71, %70 ], [ 1, %21 ]
  %41 = load i32, i32* %15, align 4, !tbaa !5
  br i1 %27, label %49, label %42

42:                                               ; preds = %39, %42
  %43 = phi i32* [ %45, %42 ], [ %15, %39 ]
  %44 = phi i64 [ %47, %42 ], [ %26, %39 ]
  %45 = getelementptr inbounds i32, i32* %43, i64 -1
  %46 = load i32, i32* %45, align 4, !tbaa !5
  store i32 %46, i32* %43, align 4, !tbaa !5
  %47 = add i64 %44, -1
  %48 = icmp eq i64 %47, 0
  br i1 %48, label %49, label %42, !llvm.loop !11

49:                                               ; preds = %42, %39
  %50 = phi i32* [ %15, %39 ], [ %45, %42 ]
  br i1 %28, label %70, label %51

51:                                               ; preds = %49, %51
  %52 = phi i32* [ %67, %51 ], [ %50, %49 ]
  %53 = getelementptr inbounds i32, i32* %52, i64 -1
  %54 = load i32, i32* %53, align 4, !tbaa !5
  store i32 %54, i32* %52, align 4, !tbaa !5
  %55 = getelementptr inbounds i32, i32* %52, i64 -2
  %56 = load i32, i32* %55, align 4, !tbaa !5
  store i32 %56, i32* %53, align 4, !tbaa !5
  %57 = getelementptr inbounds i32, i32* %52, i64 -3
  %58 = load i32, i32* %57, align 4, !tbaa !5
  store i32 %58, i32* %55, align 4, !tbaa !5
  %59 = getelementptr inbounds i32, i32* %52, i64 -4
  %60 = load i32, i32* %59, align 4, !tbaa !5
  store i32 %60, i32* %57, align 4, !tbaa !5
  %61 = getelementptr inbounds i32, i32* %52, i64 -5
  %62 = load i32, i32* %61, align 4, !tbaa !5
  store i32 %62, i32* %59, align 4, !tbaa !5
  %63 = getelementptr inbounds i32, i32* %52, i64 -6
  %64 = load i32, i32* %63, align 4, !tbaa !5
  store i32 %64, i32* %61, align 4, !tbaa !5
  %65 = getelementptr inbounds i32, i32* %52, i64 -7
  %66 = load i32, i32* %65, align 4, !tbaa !5
  store i32 %66, i32* %63, align 4, !tbaa !5
  %67 = getelementptr inbounds i32, i32* %52, i64 -8
  %68 = load i32, i32* %67, align 4, !tbaa !5
  store i32 %68, i32* %65, align 4, !tbaa !5
  %69 = icmp eq i32* %67, %16
  br i1 %69, label %70, label %51, !llvm.loop !13

70:                                               ; preds = %51, %49
  store i32 %41, i32* %16, align 16, !tbaa !5
  %71 = add nuw nsw i32 %40, 1
  %72 = icmp slt i32 %40, %17
  br i1 %72, label %39, label %37, !llvm.loop !14

73:                                               ; preds = %37, %73
  %74 = phi i64 [ %79, %73 ], [ 0, %37 ]
  %75 = getelementptr inbounds [100 x i32], [100 x i32]* %1, i64 0, i64 %74
  %76 = load i32, i32* %75, align 4, !tbaa !5
  %77 = call nonnull align 8 dereferenceable(8) %"class.std::basic_ostream"* @_ZNSolsEi(%"class.std::basic_ostream"* nonnull align 8 dereferenceable(8) @_ZSt4cout, i32 %76)
  %78 = call nonnull align 8 dereferenceable(8) %"class.std::basic_ostream"* @_ZSt16__ostream_insertIcSt11char_traitsIcEERSt13basic_ostreamIT_T0_ES6_PKS3_l(%"class.std::basic_ostream"* nonnull align 8 dereferenceable(8) %77, i8* nonnull getelementptr inbounds ([2 x i8], [2 x i8]* @.str, i64 0, i64 0), i64 1)
  %79 = add nuw nsw i64 %74, 1
  %80 = load i32, i32* %2, align 4, !tbaa !5
  %81 = add nsw i32 %80, -1
  %82 = sext i32 %81 to i64
  %83 = icmp slt i64 %79, %82
  br i1 %83, label %73, label %84, !llvm.loop !15

84:                                               ; preds = %73
  %85 = and i64 %79, 4294967295
  br label %86

86:                                               ; preds = %19, %84, %37
  %87 = phi i64 [ 0, %37 ], [ %85, %84 ], [ 0, %19 ]
  %88 = getelementptr inbounds [100 x i32], [100 x i32]* %1, i64 0, i64 %87
  %89 = load i32, i32* %88, align 4, !tbaa !5
  %90 = call nonnull align 8 dereferenceable(8) %"class.std::basic_ostream"* @_ZNSolsEi(%"class.std::basic_ostream"* nonnull align 8 dereferenceable(8) @_ZSt4cout, i32 %89)
  call void @llvm.lifetime.end.p0i8(i64 4, i8* nonnull %6) #6
  call void @llvm.lifetime.end.p0i8(i64 4, i8* nonnull %5) #6
  call void @llvm.lifetime.end.p0i8(i64 400, i8* nonnull %4) #6
  ret i32 0
}

; Function Attrs: argmemonly mustprogress nofree nosync nounwind willreturn
declare void @llvm.lifetime.start.p0i8(i64 immarg, i8* nocapture) #4

declare nonnull align 8 dereferenceable(16) %"class.std::basic_istream"* @_ZNSirsERi(%"class.std::basic_istream"* nonnull align 8 dereferenceable(16), i32* nonnull align 4 dereferenceable(4)) local_unnamed_addr #0

declare nonnull align 8 dereferenceable(8) %"class.std::basic_ostream"* @_ZNSolsEi(%"class.std::basic_ostream"* nonnull align 8 dereferenceable(8), i32) local_unnamed_addr #0

; Function Attrs: argmemonly mustprogress nofree nosync nounwind willreturn
declare void @llvm.lifetime.end.p0i8(i64 immarg, i8* nocapture) #4

declare nonnull align 8 dereferenceable(8) %"class.std::basic_ostream"* @_ZSt16__ostream_insertIcSt11char_traitsIcEERSt13basic_ostreamIT_T0_ES6_PKS3_l(%"class.std::basic_ostream"* nonnull align 8 dereferenceable(8), i8*, i64) local_unnamed_addr #0

; Function Attrs: sspstrong uwtable
define internal void @_GLOBAL__sub_I_4644.cpp() #5 section ".text.startup" {
  tail call void @_ZNSt8ios_base4InitC1Ev(%"class.std::ios_base::Init"* nonnull align 1 dereferenceable(1) @_ZStL8__ioinit)
  %1 = tail call i32 @__cxa_atexit(void (i8*)* bitcast (void (%"class.std::ios_base::Init"*)* @_ZNSt8ios_base4InitD1Ev to void (i8*)*), i8* getelementptr inbounds (%"class.std::ios_base::Init", %"class.std::ios_base::Init"* @_ZStL8__ioinit, i64 0, i32 0), i8* nonnull @__dso_handle) #6
  ret void
}


!llvm.module.flags = !{!0, !1, !2, !3}
!llvm.ident = !{!4}

!0 = !{i32 1, !"wchar_size", i32 4}
!1 = !{i32 7, !"PIC Level", i32 2}
!2 = !{i32 7, !"PIE Level", i32 2}
!3 = !{i32 7, !"uwtable", i32 1}
!4 = !{!"clang version 13.0.0"}
!5 = !{!6, !6, i64 0}
!6 = !{!"int", !7, i64 0}
!7 = !{!"omnipotent char", !8, i64 0}
!8 = !{!"Simple C++ TBAA"}
!9 = distinct !{!9, !10}
!10 = !{!"llvm.loop.mustprogress"}
!11 = distinct !{!11, !12}
!12 = !{!"llvm.loop.unroll.disable"}
!13 = distinct !{!13, !10}
!14 = distinct !{!14, !10}
!15 = distinct !{!15, !10}
